(lp1
(lp2
F-0.32263112806437277
aF-1.4459420961266234
aF-0.73916656465136399
aF-2.2051473447695571
aF1.5499546931583743
aF-0.5694136801896601
aa(lp3
F-0.32267826601566707
aF-1.4533782150023893
aF-0.73532529140248748
aF-2.0930861173836881
aF1.5503759626322664
aF-0.56936506018921662
aa(lp4
F-0.8421825273116248
aF-1.6329224146877666
aF-0.73658729739668072
aF-1.9847173735020238
aF1.9055379712088776
aF-0.55663666285356328
aa(lp5
F-0.84152795853467488
aF-1.6325264495053071
aF-0.73544785007585289
aF-2.2158512709603073
aF1.8928257765452967
aF-0.55683109491843652
aa(lp6
F-0.3390616857656239
aF-1.6918712254921324
aF-0.73322146870983596
aF-2.1390118723204683
aF1.4538044058583934
aF-0.55684729759050899
aa(lp7
F-0.33916538925847206
aF-1.6740102690556977
aF-0.73011556028432523
aF-2.3090868149998007
aF1.5357288549365038
aF-0.55684729759050899
aa(lp8
F-0.33918424443898942
aF-1.674113972548545
aF-0.73050615014244058
aF-1.934970376548649
aF1.5357288549365038
aF-0.55684729759050899
aa(lp9
F0.077422560607626797
aF-1.6739914138751804
aF-0.72850603733422326
aF-1.9691552342820211
aF1.3986969010572854
aF-0.55691212026302495
aa(lp10
F0.49022044022349676
aF-1.6325223908478064
aF-0.71176030410534119
aF-2.2648051998463101
aF1.181238837803041
aF-0.55702553896753493
aa(lp11
F0.3165405468265528
aF-1.8503489090868968
aF-0.76692034215329541
aF-2.2968120924821847
aF1.2592038907198415
aF-0.5571551603441165
aa(lp12
F0.18780327368576297
aF-2.1228694484021693
aF-0.60858407241241352
aF-2.2171790272060816
aF1.2593011067522781
aF-0.55723617370448064
aa(lp13
F-0.12292011119870594
aF-2.0706792738586008
aF-0.60890461687280206
aF-2.1379510287317984
aF1.5368059011972466
aF-0.55769751842645832
aa(lp14
F-0.44027013968702544
aF-2.257339047957621
aF-0.60388212728456103
aF-2.0306269257667315
aF1.6962169809496892
aF-0.55763269575394236
aa(lp15
F-0.69330135082683064
aF-2.2573673307283979
aF-0.60067251536620259
aF-2.0304000883577125
aF1.6962655889659075
aF-0.55763269575394236
aa(lp16
F-0.6298054949962566
aF-1.4462343578162353
aF-1.6086368524914132
aF-1.5034865922577316
aF1.6959577381965247
aF-0.55763269575394236
aa(lp17
F-0.58538140498751368
aF-0.98165981374451727
aF-2.1267053525110167
aF-1.1628267661450959
aF1.6959739408685977
aF-0.55763269575394236
aa(lp18
F-0.66442161225183138
aF-0.99483768023361696
aF-2.0302500403262633
aF-1.4112470811186175
aF1.6486965690942554
aF-1.4924347516160861
aa(lp19
F-0.66450646056416129
aF-0.96091790716511538
aF-1.4757107891458381
aF-1.7507983421756101
aF1.6489796724392074
aF-1.4923537382557228
aa(lp20
F-0.49271486555917132
aF-1.7286382970000664
aF-1.0410180693819784
aF-2.0158501847101622
aF1.6470123540628803
aF-1.3363912150937507
aa(lp21
F-0.49352434082935126
aF-1.7283137002737634
aF-0.98239386169550291
aF-1.8516286131120427
aF1.6494171565693971
aF-0.29688050549422851
aa(lp22
F-0.52700637969685715
aF-1.4765296922118145
aF-0.97891083687646385
aF-1.9976564055746238
aF1.6469151260462187
aF-0.45073753216670731
aa(lp23
F-0.57489057429503276
aF-1.9465496699430744
aF-1.0806795836722272
aF-1.6839746875955246
aF1.8166745600364536
aF-0.96089842436483153
aa(lp24
F-0.57732842769583304
aF-1.7984739036793727
aF-0.1397506863465969
aF-2.3275722422326486
aF1.8167393707247448
aF-0.96115766711799644
aa(lp25
F-0.57815675814653122
aF-1.3933047597917994
aF-0.13469585533007797
aF-2.5637016440007065
aF1.682112219352043
aF-0.77692082205666591
aa(lp26
F-0.57738905189488765
aF-1.3932010562989516
aF-0.13461100701774809
aF-2.6878755671834642
aF1.6782662418952425
aF-0.43504577157012303
aa(lp27
F0.42411703436746234
aF-1.2903211449531371
aF-1.3871818369218987
aF-2.1268744410833742
aF1.1049989380298941
aF-0.4354832557003121
aa(lp28
F0.71376984450381731
aF-1.2148057315263949
aF-1.6992884761969353
aF-2.0881554237622044
aF1.1105692057661551
aF0.092676971300854102
aa(lp29
F0.0042682695843575371
aF-0.39511068505872027
aF-1.9690047963665678
aF-1.678638927172222
aF1.4295704814964838
aF-0.37317755803595087
aa.